; Function Attrs: mustprogress nofree norecurse nosync nounwind willreturn memory(argmem: read) uwtable
define noundef i32 @_ZN10open_spiel14dots_and_boxes4Move11GetCellLeftEv(ptr nocapture noundef nonnull readonly align 4 dereferenceable(20) %0) local_unnamed_addr #7 align 2 {
  %2 = getelementptr inbounds nuw i8, ptr %0, i64 4
  %3 = load i32, ptr %2, align 4
  %4 = icmp eq i32 %3, 0
  br i1 %4, label %13, label %5

5:                                                ; preds = %1
  %6 = load i32, ptr %0, align 4
  %7 = getelementptr inbounds nuw i8, ptr %0, i64 16
  %8 = load i32, ptr %7, align 4
  %9 = add nsw i32 %8, 1
  %10 = mul nsw i32 %9, %6
  %11 = add nsw i32 %3, -1
  %12 = add nsw i32 %11, %10
  br label %13

13:                                               ; preds = %1, %5
  %.0 = phi i32 [ %12, %5 ], [ -1, %1 ]
  ret i32 %.0
}